; Listing generated by Microsoft (R) Optimizing Compiler Version 19.38.33134.0 

	TITLE	C:\Users\bartyy\Desktop\ЛАБЫ\2sem\КПО НАРКЕВИЧ\laba1\lab1\lab1-3\lab1\Debug\check.obj
	.686P
	.XMM
	include listing.inc
	.model	flat

INCLUDELIB MSVCRTD
INCLUDELIB OLDNAMES

msvcjmc	SEGMENT
__D359774B_concurrencysal@h DB 01H
__0E7B27E3_sal@h DB 01H
__C320D00B_vadefs@h DB 01H
__E4023321_vcruntime@h DB 01H
__00DF763C_xkeycheck@h DB 01H
__88561E20_yvals_core@h DB 01H
__055B9052_limits@h DB 01H
__C9C51ACF_climits DB 01H
__1B0272D9_corecrt@h DB 01H
__F1E46517_vcruntime_new@h DB 01H
__E79C2965_vcruntime_new_debug@h DB 01H
__935DC21B_crtdbg@h DB 01H
__8EB9E6B2_crtdefs@h DB 01H
__3921DDCC_use_ansi@h DB 01H
__FB6A8E82_yvals@h DB 01H
__BB16330F_corecrt_math@h DB 01H
__3BF2A406_math@h DB 01H
__45DED006_corecrt_malloc@h DB 01H
__13F5961F_stddef@h DB 01H
__FD6DBD68_corecrt_search@h DB 01H
__E2E33A61_corecrt_wstdlib@h DB 01H
__6E5ACABA_stdlib@h DB 01H
__4D2A383D_cstdlib DB 01H
__C22FEF85_xtr1common DB 01H
__93E65AE6_intrin0@inl@h DB 01H
__97945FB9_intrin0@h DB 01H
__6CC12954_cmath DB 01H
__44420885_corecrt_stdio_config@h DB 01H
__AB601D8D_corecrt_wstdio@h DB 01H
__C1EC35D3_stdio@h DB 01H
__0C4D3472_cstdio DB 01H
__61CC25A1_errno@h DB 01H
__1A10C8D2_vcruntime_string@h DB 01H
__E4C945B4_corecrt_memcpy_s@h DB 01H
__8EAFF484_corecrt_memory@h DB 01H
__6490AEC5_corecrt_wstring@h DB 01H
__E8295E1E_string@h DB 01H
__01B890DD_cstring DB 01H
__EF1F6BBA_corecrt_wconio@h DB 01H
__74484FB3_corecrt_wctype@h DB 01H
__3D1D430C_corecrt_wdirect@h DB 01H
__8ECB7138_corecrt_share@h DB 01H
__DB7FEBA6_corecrt_wio@h DB 01H
__9A9F0068_corecrt_wprocess@h DB 01H
__369A9BC3_corecrt_wtime@h DB 01H
__CE789B9D_types@h DB 01H
__9901C817_stat@h DB 01H
__3FCAD62E_wchar@h DB 01H
__96C6E221_cwchar DB 01H
__D5066717_iosfwd DB 01H
__E8E1E290_cstddef DB 01H
__C99F0178_initializer_list DB 01H
__BB2DBE6D_stdint@h DB 01H
__F074D940_cstdint DB 01H
__4E76B0F7_type_traits DB 01H
__7A27BDB6_utility DB 01H
__A7DD546F___msvc_iter_core@hpp DB 01H
__D7F5C690_xutility DB 01H
__C65971D0_iterator DB 01H
__F7972D0B_share@h DB 01H
__A5C59D72___msvc_system_error_abi@hpp DB 01H
__916C4089_cerrno DB 01H
__FA77ED4C_malloc@h DB 01H
__89766DA4_corecrt_terminate@h DB 01H
__87FC2B8E_eh@h DB 01H
__EF722C37_vcruntime_exception@h DB 01H
__46E68824_exception DB 01H
__38361E47___msvc_sanitizer_annotate_container@hpp DB 01H
__B9985323_float@h DB 01H
__7F09FFF5_cfloat DB 01H
__19EFB291_limits DB 01H
__5FC42405_new DB 01H
__4CEA04F2_xatomic@h DB 01H
__10B2DE75_xmemory DB 01H
__646158E9_xstring DB 01H
__CFA8B279_stdexcept DB 01H
__CBCEC070_xcall_once@h DB 01H
__53FF9B8D_xerrc@h DB 01H
__0A9237D2_time@h DB 01H
__AA72B55C_ctime DB 01H
__613125D1_xtimec@h DB 01H
__586FEA7F_xthreads@h DB 01H
__72DAEE53_atomic DB 01H
__7493D250_system_error DB 01H
__B333B2F0_vcruntime_typeinfo@h DB 01H
__A72A3589_typeinfo DB 01H
__A541BE1F_memory DB 01H
__8904E910_xfacet DB 01H
__52B54150___msvc_xlocinfo_types@hpp DB 01H
__1EC467ED_ctype@h DB 01H
__0386D3D5_cctype DB 01H
__791C33B7_locale@h DB 01H
__DE86E4EC_clocale DB 01H
__B8A3D641_xlocinfo DB 01H
__BB5F2CD8_xlocale DB 01H
__8146A152_xiosbase DB 01H
__CD080AC5_streambuf DB 01H
__25D84ACF_xlocnum DB 01H
__A7091E13_ios DB 01H
__A84FF61C_ostream DB 01H
__CB9FC326_istream DB 01H
__B58CBC8F_iostream DB 01H
__1FF81E9C_Header@h DB 01H
__81F9F236_stdafx@h DB 01H
__1FFAC3F8_check@cpp DB 01H
msvcjmc	ENDS
PUBLIC	?__empty_global_delete@@YAXPAX@Z		; __empty_global_delete
PUBLIC	?__empty_global_delete@@YAXPAXI@Z		; __empty_global_delete
PUBLIC	?check@@YA_NHHH@Z				; check
PUBLIC	__JustMyCode_Default
EXTRN	?ifYearLeap@@YA_NH@Z:PROC			; ifYearLeap
EXTRN	@_RTC_CheckStackVars@8:PROC
EXTRN	@__CheckForDebuggerJustMyCode@4:PROC
EXTRN	__RTC_CheckEsp:PROC
EXTRN	__RTC_InitBase:PROC
EXTRN	__RTC_Shutdown:PROC
;	COMDAT rtc$TMZ
rtc$TMZ	SEGMENT
__RTC_Shutdown.rtc$TMZ DD FLAT:__RTC_Shutdown
rtc$TMZ	ENDS
;	COMDAT rtc$IMZ
rtc$IMZ	SEGMENT
__RTC_InitBase.rtc$IMZ DD FLAT:__RTC_InitBase
rtc$IMZ	ENDS
; Function compile flags: /Odt
;	COMDAT __JustMyCode_Default
_TEXT	SEGMENT
__JustMyCode_Default PROC				; COMDAT
  00000	55		 push	 ebp
  00001	8b ec		 mov	 ebp, esp
  00003	5d		 pop	 ebp
  00004	c3		 ret	 0
__JustMyCode_Default ENDP
_TEXT	ENDS
; Function compile flags: /Odtp /RTCsu /ZI
; File C:\Users\bartyy\Desktop\ЛАБЫ\2sem\КПО НАРКЕВИЧ\laba1\lab1\lab1-3\lab1\check.cpp
;	COMDAT ?check@@YA_NHHH@Z
_TEXT	SEGMENT
_twelve$ = -52						; size = 48
_day$ = 8						; size = 4
_month$ = 12						; size = 4
_year$ = 16						; size = 4
?check@@YA_NHHH@Z PROC					; check, COMDAT

; 4    : {

  00000	55		 push	 ebp
  00001	8b ec		 mov	 ebp, esp
  00003	81 ec f8 00 00
	00		 sub	 esp, 248		; 000000f8H
  00009	53		 push	 ebx
  0000a	56		 push	 esi
  0000b	57		 push	 edi
  0000c	8d 7d c8	 lea	 edi, DWORD PTR [ebp-56]
  0000f	b9 0e 00 00 00	 mov	 ecx, 14			; 0000000eH
  00014	b8 cc cc cc cc	 mov	 eax, -858993460		; ccccccccH
  00019	f3 ab		 rep stosd
  0001b	b9 00 00 00 00	 mov	 ecx, OFFSET __1FFAC3F8_check@cpp
  00020	e8 00 00 00 00	 call	 @__CheckForDebuggerJustMyCode@4

; 5    :     int twelve[]{ 31, 28, 31, 30, 31, 30, 31, 31, 30, 31, 30, 31 };

  00025	c7 45 cc 1f 00
	00 00		 mov	 DWORD PTR _twelve$[ebp], 31 ; 0000001fH
  0002c	c7 45 d0 1c 00
	00 00		 mov	 DWORD PTR _twelve$[ebp+4], 28 ; 0000001cH
  00033	c7 45 d4 1f 00
	00 00		 mov	 DWORD PTR _twelve$[ebp+8], 31 ; 0000001fH
  0003a	c7 45 d8 1e 00
	00 00		 mov	 DWORD PTR _twelve$[ebp+12], 30 ; 0000001eH
  00041	c7 45 dc 1f 00
	00 00		 mov	 DWORD PTR _twelve$[ebp+16], 31 ; 0000001fH
  00048	c7 45 e0 1e 00
	00 00		 mov	 DWORD PTR _twelve$[ebp+20], 30 ; 0000001eH
  0004f	c7 45 e4 1f 00
	00 00		 mov	 DWORD PTR _twelve$[ebp+24], 31 ; 0000001fH
  00056	c7 45 e8 1f 00
	00 00		 mov	 DWORD PTR _twelve$[ebp+28], 31 ; 0000001fH
  0005d	c7 45 ec 1e 00
	00 00		 mov	 DWORD PTR _twelve$[ebp+32], 30 ; 0000001eH
  00064	c7 45 f0 1f 00
	00 00		 mov	 DWORD PTR _twelve$[ebp+36], 31 ; 0000001fH
  0006b	c7 45 f4 1e 00
	00 00		 mov	 DWORD PTR _twelve$[ebp+40], 30 ; 0000001eH
  00072	c7 45 f8 1f 00
	00 00		 mov	 DWORD PTR _twelve$[ebp+44], 31 ; 0000001fH

; 6    :     if (day == 29 && ifYearLeap(year))

  00079	83 7d 08 1d	 cmp	 DWORD PTR _day$[ebp], 29 ; 0000001dH
  0007d	75 19		 jne	 SHORT $LN2@check
  0007f	8b 45 10	 mov	 eax, DWORD PTR _year$[ebp]
  00082	50		 push	 eax
  00083	e8 00 00 00 00	 call	 ?ifYearLeap@@YA_NH@Z	; ifYearLeap
  00088	83 c4 04	 add	 esp, 4
  0008b	0f b6 c8	 movzx	 ecx, al
  0008e	85 c9		 test	 ecx, ecx
  00090	74 06		 je	 SHORT $LN2@check

; 7    :         return true;

  00092	b0 01		 mov	 al, 1
  00094	eb 1e		 jmp	 SHORT $LN1@check
  00096	eb 10		 jmp	 SHORT $LN3@check
$LN2@check:

; 8    :     else if (day > twelve[month - 1]) {

  00098	8b 45 0c	 mov	 eax, DWORD PTR _month$[ebp]
  0009b	8b 4d 08	 mov	 ecx, DWORD PTR _day$[ebp]
  0009e	3b 4c 85 c8	 cmp	 ecx, DWORD PTR _twelve$[ebp+eax*4-4]
  000a2	7e 04		 jle	 SHORT $LN3@check

; 9    :         return false;

  000a4	32 c0		 xor	 al, al
  000a6	eb 0c		 jmp	 SHORT $LN1@check
$LN3@check:

; 10   :     }
; 11   :     if (month > 12) {

  000a8	83 7d 0c 0c	 cmp	 DWORD PTR _month$[ebp], 12 ; 0000000cH
  000ac	7e 04		 jle	 SHORT $LN5@check

; 12   :         return false;

  000ae	32 c0		 xor	 al, al
  000b0	eb 02		 jmp	 SHORT $LN1@check
$LN5@check:

; 13   :     }
; 14   :     return true;

  000b2	b0 01		 mov	 al, 1
$LN1@check:

; 15   : }

  000b4	52		 push	 edx
  000b5	8b cd		 mov	 ecx, ebp
  000b7	50		 push	 eax
  000b8	8d 15 00 00 00
	00		 lea	 edx, DWORD PTR $LN9@check
  000be	e8 00 00 00 00	 call	 @_RTC_CheckStackVars@8
  000c3	58		 pop	 eax
  000c4	5a		 pop	 edx
  000c5	5f		 pop	 edi
  000c6	5e		 pop	 esi
  000c7	5b		 pop	 ebx
  000c8	81 c4 f8 00 00
	00		 add	 esp, 248		; 000000f8H
  000ce	3b ec		 cmp	 ebp, esp
  000d0	e8 00 00 00 00	 call	 __RTC_CheckEsp
  000d5	8b e5		 mov	 esp, ebp
  000d7	5d		 pop	 ebp
  000d8	c3		 ret	 0
  000d9	0f 1f 00	 npad	 3
$LN9@check:
  000dc	01 00 00 00	 DD	 1
  000e0	00 00 00 00	 DD	 $LN8@check
$LN8@check:
  000e4	cc ff ff ff	 DD	 -52			; ffffffccH
  000e8	30 00 00 00	 DD	 48			; 00000030H
  000ec	00 00 00 00	 DD	 $LN7@check
$LN7@check:
  000f0	74		 DB	 116			; 00000074H
  000f1	77		 DB	 119			; 00000077H
  000f2	65		 DB	 101			; 00000065H
  000f3	6c		 DB	 108			; 0000006cH
  000f4	76		 DB	 118			; 00000076H
  000f5	65		 DB	 101			; 00000065H
  000f6	00		 DB	 0
?check@@YA_NHHH@Z ENDP					; check
_TEXT	ENDS
; Function compile flags: /Odtp /RTCsu /ZI
; File C:\Users\bartyy\Desktop\ЛАБЫ\2sem\КПО НАРКЕВИЧ\laba1\lab1\lab1-3\lab1\check.cpp
;	COMDAT ?__empty_global_delete@@YAXPAXI@Z
_TEXT	SEGMENT
___formal$ = 8						; size = 4
___formal$ = 12						; size = 4
?__empty_global_delete@@YAXPAXI@Z PROC			; __empty_global_delete, COMDAT

  00000	55		 push	 ebp
  00001	8b ec		 mov	 ebp, esp
  00003	81 ec c0 00 00
	00		 sub	 esp, 192		; 000000c0H
  00009	53		 push	 ebx
  0000a	56		 push	 esi
  0000b	57		 push	 edi
  0000c	8b fd		 mov	 edi, ebp
  0000e	33 c9		 xor	 ecx, ecx
  00010	b8 cc cc cc cc	 mov	 eax, -858993460		; ccccccccH
  00015	f3 ab		 rep stosd
  00017	b9 00 00 00 00	 mov	 ecx, OFFSET __1FFAC3F8_check@cpp
  0001c	e8 00 00 00 00	 call	 @__CheckForDebuggerJustMyCode@4
  00021	5f		 pop	 edi
  00022	5e		 pop	 esi
  00023	5b		 pop	 ebx
  00024	81 c4 c0 00 00
	00		 add	 esp, 192		; 000000c0H
  0002a	3b ec		 cmp	 ebp, esp
  0002c	e8 00 00 00 00	 call	 __RTC_CheckEsp
  00031	8b e5		 mov	 esp, ebp
  00033	5d		 pop	 ebp
  00034	c3		 ret	 0
?__empty_global_delete@@YAXPAXI@Z ENDP			; __empty_global_delete
_TEXT	ENDS
; Function compile flags: /Odtp /RTCsu /ZI
; File C:\Users\bartyy\Desktop\ЛАБЫ\2sem\КПО НАРКЕВИЧ\laba1\lab1\lab1-3\lab1\check.cpp
;	COMDAT ?__empty_global_delete@@YAXPAX@Z
_TEXT	SEGMENT
___formal$ = 8						; size = 4
?__empty_global_delete@@YAXPAX@Z PROC			; __empty_global_delete, COMDAT

  00000	55		 push	 ebp
  00001	8b ec		 mov	 ebp, esp
  00003	81 ec c0 00 00
	00		 sub	 esp, 192		; 000000c0H
  00009	53		 push	 ebx
  0000a	56		 push	 esi
  0000b	57		 push	 edi
  0000c	8b fd		 mov	 edi, ebp
  0000e	33 c9		 xor	 ecx, ecx
  00010	b8 cc cc cc cc	 mov	 eax, -858993460		; ccccccccH
  00015	f3 ab		 rep stosd
  00017	b9 00 00 00 00	 mov	 ecx, OFFSET __1FFAC3F8_check@cpp
  0001c	e8 00 00 00 00	 call	 @__CheckForDebuggerJustMyCode@4
  00021	5f		 pop	 edi
  00022	5e		 pop	 esi
  00023	5b		 pop	 ebx
  00024	81 c4 c0 00 00
	00		 add	 esp, 192		; 000000c0H
  0002a	3b ec		 cmp	 ebp, esp
  0002c	e8 00 00 00 00	 call	 __RTC_CheckEsp
  00031	8b e5		 mov	 esp, ebp
  00033	5d		 pop	 ebp
  00034	c3		 ret	 0
?__empty_global_delete@@YAXPAX@Z ENDP			; __empty_global_delete
_TEXT	ENDS
END
