; Listing generated by Microsoft (R) Optimizing Compiler Version 19.38.33134.0 

	TITLE	C:\Users\bartyy\Desktop\ЛАБЫ\2sem\КПО НАРКЕВИЧ\laba1\lab1\lab1-3\lab1\Debug\ifYearLeap.obj
	.686P
	.XMM
	include listing.inc
	.model	flat

INCLUDELIB MSVCRTD
INCLUDELIB OLDNAMES

msvcjmc	SEGMENT
__D359774B_concurrencysal@h DB 01H
__0E7B27E3_sal@h DB 01H
__C320D00B_vadefs@h DB 01H
__E4023321_vcruntime@h DB 01H
__00DF763C_xkeycheck@h DB 01H
__88561E20_yvals_core@h DB 01H
__055B9052_limits@h DB 01H
__C9C51ACF_climits DB 01H
__1B0272D9_corecrt@h DB 01H
__F1E46517_vcruntime_new@h DB 01H
__E79C2965_vcruntime_new_debug@h DB 01H
__935DC21B_crtdbg@h DB 01H
__8EB9E6B2_crtdefs@h DB 01H
__3921DDCC_use_ansi@h DB 01H
__FB6A8E82_yvals@h DB 01H
__BB16330F_corecrt_math@h DB 01H
__3BF2A406_math@h DB 01H
__45DED006_corecrt_malloc@h DB 01H
__13F5961F_stddef@h DB 01H
__FD6DBD68_corecrt_search@h DB 01H
__E2E33A61_corecrt_wstdlib@h DB 01H
__6E5ACABA_stdlib@h DB 01H
__4D2A383D_cstdlib DB 01H
__C22FEF85_xtr1common DB 01H
__93E65AE6_intrin0@inl@h DB 01H
__97945FB9_intrin0@h DB 01H
__6CC12954_cmath DB 01H
__44420885_corecrt_stdio_config@h DB 01H
__AB601D8D_corecrt_wstdio@h DB 01H
__C1EC35D3_stdio@h DB 01H
__0C4D3472_cstdio DB 01H
__61CC25A1_errno@h DB 01H
__1A10C8D2_vcruntime_string@h DB 01H
__E4C945B4_corecrt_memcpy_s@h DB 01H
__8EAFF484_corecrt_memory@h DB 01H
__6490AEC5_corecrt_wstring@h DB 01H
__E8295E1E_string@h DB 01H
__01B890DD_cstring DB 01H
__EF1F6BBA_corecrt_wconio@h DB 01H
__74484FB3_corecrt_wctype@h DB 01H
__3D1D430C_corecrt_wdirect@h DB 01H
__8ECB7138_corecrt_share@h DB 01H
__DB7FEBA6_corecrt_wio@h DB 01H
__9A9F0068_corecrt_wprocess@h DB 01H
__369A9BC3_corecrt_wtime@h DB 01H
__CE789B9D_types@h DB 01H
__9901C817_stat@h DB 01H
__3FCAD62E_wchar@h DB 01H
__96C6E221_cwchar DB 01H
__D5066717_iosfwd DB 01H
__E8E1E290_cstddef DB 01H
__C99F0178_initializer_list DB 01H
__BB2DBE6D_stdint@h DB 01H
__F074D940_cstdint DB 01H
__4E76B0F7_type_traits DB 01H
__7A27BDB6_utility DB 01H
__A7DD546F___msvc_iter_core@hpp DB 01H
__D7F5C690_xutility DB 01H
__C65971D0_iterator DB 01H
__F7972D0B_share@h DB 01H
__A5C59D72___msvc_system_error_abi@hpp DB 01H
__916C4089_cerrno DB 01H
__FA77ED4C_malloc@h DB 01H
__89766DA4_corecrt_terminate@h DB 01H
__87FC2B8E_eh@h DB 01H
__EF722C37_vcruntime_exception@h DB 01H
__46E68824_exception DB 01H
__38361E47___msvc_sanitizer_annotate_container@hpp DB 01H
__B9985323_float@h DB 01H
__7F09FFF5_cfloat DB 01H
__19EFB291_limits DB 01H
__5FC42405_new DB 01H
__4CEA04F2_xatomic@h DB 01H
__10B2DE75_xmemory DB 01H
__646158E9_xstring DB 01H
__CFA8B279_stdexcept DB 01H
__CBCEC070_xcall_once@h DB 01H
__53FF9B8D_xerrc@h DB 01H
__0A9237D2_time@h DB 01H
__AA72B55C_ctime DB 01H
__613125D1_xtimec@h DB 01H
__586FEA7F_xthreads@h DB 01H
__72DAEE53_atomic DB 01H
__7493D250_system_error DB 01H
__B333B2F0_vcruntime_typeinfo@h DB 01H
__A72A3589_typeinfo DB 01H
__A541BE1F_memory DB 01H
__8904E910_xfacet DB 01H
__52B54150___msvc_xlocinfo_types@hpp DB 01H
__1EC467ED_ctype@h DB 01H
__0386D3D5_cctype DB 01H
__791C33B7_locale@h DB 01H
__DE86E4EC_clocale DB 01H
__B8A3D641_xlocinfo DB 01H
__BB5F2CD8_xlocale DB 01H
__8146A152_xiosbase DB 01H
__CD080AC5_streambuf DB 01H
__25D84ACF_xlocnum DB 01H
__A7091E13_ios DB 01H
__A84FF61C_ostream DB 01H
__CB9FC326_istream DB 01H
__B58CBC8F_iostream DB 01H
__1FF81E9C_Header@h DB 01H
__81F9F236_stdafx@h DB 01H
__6A18B076_ifYearLeap@cpp DB 01H
msvcjmc	ENDS
PUBLIC	?__empty_global_delete@@YAXPAX@Z		; __empty_global_delete
PUBLIC	?__empty_global_delete@@YAXPAXI@Z		; __empty_global_delete
PUBLIC	?ifYearLeap@@YA_NH@Z				; ifYearLeap
PUBLIC	__JustMyCode_Default
EXTRN	@__CheckForDebuggerJustMyCode@4:PROC
EXTRN	__RTC_CheckEsp:PROC
EXTRN	__RTC_InitBase:PROC
EXTRN	__RTC_Shutdown:PROC
;	COMDAT rtc$TMZ
rtc$TMZ	SEGMENT
__RTC_Shutdown.rtc$TMZ DD FLAT:__RTC_Shutdown
rtc$TMZ	ENDS
;	COMDAT rtc$IMZ
rtc$IMZ	SEGMENT
__RTC_InitBase.rtc$IMZ DD FLAT:__RTC_InitBase
rtc$IMZ	ENDS
; Function compile flags: /Odt
;	COMDAT __JustMyCode_Default
_TEXT	SEGMENT
__JustMyCode_Default PROC				; COMDAT
  00000	55		 push	 ebp
  00001	8b ec		 mov	 ebp, esp
  00003	5d		 pop	 ebp
  00004	c3		 ret	 0
__JustMyCode_Default ENDP
_TEXT	ENDS
; Function compile flags: /Odtp /RTCsu /ZI
; File C:\Users\bartyy\Desktop\ЛАБЫ\2sem\КПО НАРКЕВИЧ\laba1\lab1\lab1-3\lab1\ifYearLeap.cpp
;	COMDAT ?ifYearLeap@@YA_NH@Z
_TEXT	SEGMENT
tv70 = -196						; size = 4
_iYear$ = 8						; size = 4
?ifYearLeap@@YA_NH@Z PROC				; ifYearLeap, COMDAT

; 4    : {

  00000	55		 push	 ebp
  00001	8b ec		 mov	 ebp, esp
  00003	81 ec c4 00 00
	00		 sub	 esp, 196		; 000000c4H
  00009	53		 push	 ebx
  0000a	56		 push	 esi
  0000b	57		 push	 edi
  0000c	8d 7d fc	 lea	 edi, DWORD PTR [ebp-4]
  0000f	b9 01 00 00 00	 mov	 ecx, 1
  00014	b8 cc cc cc cc	 mov	 eax, -858993460		; ccccccccH
  00019	f3 ab		 rep stosd
  0001b	b9 00 00 00 00	 mov	 ecx, OFFSET __6A18B076_ifYearLeap@cpp
  00020	e8 00 00 00 00	 call	 @__CheckForDebuggerJustMyCode@4

; 5    :     return iYear % 4 == 0 && (iYear % 100 != 0 || iYear % 400 == 0);

  00025	8b 45 08	 mov	 eax, DWORD PTR _iYear$[ebp]
  00028	25 03 00 00 80	 and	 eax, -2147483645	; 80000003H
  0002d	79 05		 jns	 SHORT $LN6@ifYearLeap
  0002f	48		 dec	 eax
  00030	83 c8 fc	 or	 eax, -4			; fffffffcH
  00033	40		 inc	 eax
$LN6@ifYearLeap:
  00034	85 c0		 test	 eax, eax
  00036	75 2a		 jne	 SHORT $LN4@ifYearLeap
  00038	8b 45 08	 mov	 eax, DWORD PTR _iYear$[ebp]
  0003b	99		 cdq
  0003c	b9 64 00 00 00	 mov	 ecx, 100		; 00000064H
  00041	f7 f9		 idiv	 ecx
  00043	85 d2		 test	 edx, edx
  00045	75 0f		 jne	 SHORT $LN3@ifYearLeap
  00047	8b 45 08	 mov	 eax, DWORD PTR _iYear$[ebp]
  0004a	99		 cdq
  0004b	b9 90 01 00 00	 mov	 ecx, 400		; 00000190H
  00050	f7 f9		 idiv	 ecx
  00052	85 d2		 test	 edx, edx
  00054	75 0c		 jne	 SHORT $LN4@ifYearLeap
$LN3@ifYearLeap:
  00056	c7 85 3c ff ff
	ff 01 00 00 00	 mov	 DWORD PTR tv70[ebp], 1
  00060	eb 0a		 jmp	 SHORT $LN5@ifYearLeap
$LN4@ifYearLeap:
  00062	c7 85 3c ff ff
	ff 00 00 00 00	 mov	 DWORD PTR tv70[ebp], 0
$LN5@ifYearLeap:
  0006c	0f b6 85 3c ff
	ff ff		 movzx	 eax, BYTE PTR tv70[ebp]

; 6    : }

  00073	5f		 pop	 edi
  00074	5e		 pop	 esi
  00075	5b		 pop	 ebx
  00076	81 c4 c4 00 00
	00		 add	 esp, 196		; 000000c4H
  0007c	3b ec		 cmp	 ebp, esp
  0007e	e8 00 00 00 00	 call	 __RTC_CheckEsp
  00083	8b e5		 mov	 esp, ebp
  00085	5d		 pop	 ebp
  00086	c3		 ret	 0
?ifYearLeap@@YA_NH@Z ENDP				; ifYearLeap
_TEXT	ENDS
; Function compile flags: /Odtp /RTCsu /ZI
; File C:\Users\bartyy\Desktop\ЛАБЫ\2sem\КПО НАРКЕВИЧ\laba1\lab1\lab1-3\lab1\ifYearLeap.cpp
;	COMDAT ?__empty_global_delete@@YAXPAXI@Z
_TEXT	SEGMENT
___formal$ = 8						; size = 4
___formal$ = 12						; size = 4
?__empty_global_delete@@YAXPAXI@Z PROC			; __empty_global_delete, COMDAT

  00000	55		 push	 ebp
  00001	8b ec		 mov	 ebp, esp
  00003	81 ec c0 00 00
	00		 sub	 esp, 192		; 000000c0H
  00009	53		 push	 ebx
  0000a	56		 push	 esi
  0000b	57		 push	 edi
  0000c	8b fd		 mov	 edi, ebp
  0000e	33 c9		 xor	 ecx, ecx
  00010	b8 cc cc cc cc	 mov	 eax, -858993460		; ccccccccH
  00015	f3 ab		 rep stosd
  00017	b9 00 00 00 00	 mov	 ecx, OFFSET __6A18B076_ifYearLeap@cpp
  0001c	e8 00 00 00 00	 call	 @__CheckForDebuggerJustMyCode@4
  00021	5f		 pop	 edi
  00022	5e		 pop	 esi
  00023	5b		 pop	 ebx
  00024	81 c4 c0 00 00
	00		 add	 esp, 192		; 000000c0H
  0002a	3b ec		 cmp	 ebp, esp
  0002c	e8 00 00 00 00	 call	 __RTC_CheckEsp
  00031	8b e5		 mov	 esp, ebp
  00033	5d		 pop	 ebp
  00034	c3		 ret	 0
?__empty_global_delete@@YAXPAXI@Z ENDP			; __empty_global_delete
_TEXT	ENDS
; Function compile flags: /Odtp /RTCsu /ZI
; File C:\Users\bartyy\Desktop\ЛАБЫ\2sem\КПО НАРКЕВИЧ\laba1\lab1\lab1-3\lab1\ifYearLeap.cpp
;	COMDAT ?__empty_global_delete@@YAXPAX@Z
_TEXT	SEGMENT
___formal$ = 8						; size = 4
?__empty_global_delete@@YAXPAX@Z PROC			; __empty_global_delete, COMDAT

  00000	55		 push	 ebp
  00001	8b ec		 mov	 ebp, esp
  00003	81 ec c0 00 00
	00		 sub	 esp, 192		; 000000c0H
  00009	53		 push	 ebx
  0000a	56		 push	 esi
  0000b	57		 push	 edi
  0000c	8b fd		 mov	 edi, ebp
  0000e	33 c9		 xor	 ecx, ecx
  00010	b8 cc cc cc cc	 mov	 eax, -858993460		; ccccccccH
  00015	f3 ab		 rep stosd
  00017	b9 00 00 00 00	 mov	 ecx, OFFSET __6A18B076_ifYearLeap@cpp
  0001c	e8 00 00 00 00	 call	 @__CheckForDebuggerJustMyCode@4
  00021	5f		 pop	 edi
  00022	5e		 pop	 esi
  00023	5b		 pop	 ebx
  00024	81 c4 c0 00 00
	00		 add	 esp, 192		; 000000c0H
  0002a	3b ec		 cmp	 ebp, esp
  0002c	e8 00 00 00 00	 call	 __RTC_CheckEsp
  00031	8b e5		 mov	 esp, ebp
  00033	5d		 pop	 ebp
  00034	c3		 ret	 0
?__empty_global_delete@@YAXPAX@Z ENDP			; __empty_global_delete
_TEXT	ENDS
END
