; Listing generated by Microsoft (R) Optimizing Compiler Version 19.38.33134.0 

	TITLE	C:\Users\bartyy\Desktop\ЛАБЫ\2sem\КПО НАРКЕВИЧ\laba1\laba\lab1-3\lab1\Debug\dayBeforeBirthday.obj
	.686P
	.XMM
	include listing.inc
	.model	flat

INCLUDELIB MSVCRTD
INCLUDELIB OLDNAMES

msvcjmc	SEGMENT
__D359774B_concurrencysal@h DB 01H
__0E7B27E3_sal@h DB 01H
__C320D00B_vadefs@h DB 01H
__E4023321_vcruntime@h DB 01H
__00DF763C_xkeycheck@h DB 01H
__88561E20_yvals_core@h DB 01H
__055B9052_limits@h DB 01H
__C9C51ACF_climits DB 01H
__1B0272D9_corecrt@h DB 01H
__F1E46517_vcruntime_new@h DB 01H
__E79C2965_vcruntime_new_debug@h DB 01H
__935DC21B_crtdbg@h DB 01H
__8EB9E6B2_crtdefs@h DB 01H
__3921DDCC_use_ansi@h DB 01H
__FB6A8E82_yvals@h DB 01H
__BB16330F_corecrt_math@h DB 01H
__3BF2A406_math@h DB 01H
__45DED006_corecrt_malloc@h DB 01H
__13F5961F_stddef@h DB 01H
__FD6DBD68_corecrt_search@h DB 01H
__E2E33A61_corecrt_wstdlib@h DB 01H
__6E5ACABA_stdlib@h DB 01H
__4D2A383D_cstdlib DB 01H
__C22FEF85_xtr1common DB 01H
__93E65AE6_intrin0@inl@h DB 01H
__97945FB9_intrin0@h DB 01H
__6CC12954_cmath DB 01H
__44420885_corecrt_stdio_config@h DB 01H
__AB601D8D_corecrt_wstdio@h DB 01H
__C1EC35D3_stdio@h DB 01H
__0C4D3472_cstdio DB 01H
__61CC25A1_errno@h DB 01H
__1A10C8D2_vcruntime_string@h DB 01H
__E4C945B4_corecrt_memcpy_s@h DB 01H
__8EAFF484_corecrt_memory@h DB 01H
__6490AEC5_corecrt_wstring@h DB 01H
__E8295E1E_string@h DB 01H
__01B890DD_cstring DB 01H
__EF1F6BBA_corecrt_wconio@h DB 01H
__74484FB3_corecrt_wctype@h DB 01H
__3D1D430C_corecrt_wdirect@h DB 01H
__8ECB7138_corecrt_share@h DB 01H
__DB7FEBA6_corecrt_wio@h DB 01H
__9A9F0068_corecrt_wprocess@h DB 01H
__369A9BC3_corecrt_wtime@h DB 01H
__CE789B9D_types@h DB 01H
__9901C817_stat@h DB 01H
__3FCAD62E_wchar@h DB 01H
__96C6E221_cwchar DB 01H
__D5066717_iosfwd DB 01H
__E8E1E290_cstddef DB 01H
__C99F0178_initializer_list DB 01H
__BB2DBE6D_stdint@h DB 01H
__F074D940_cstdint DB 01H
__4E76B0F7_type_traits DB 01H
__7A27BDB6_utility DB 01H
__A7DD546F___msvc_iter_core@hpp DB 01H
__D7F5C690_xutility DB 01H
__C65971D0_iterator DB 01H
__F7972D0B_share@h DB 01H
__A5C59D72___msvc_system_error_abi@hpp DB 01H
__916C4089_cerrno DB 01H
__FA77ED4C_malloc@h DB 01H
__89766DA4_corecrt_terminate@h DB 01H
__87FC2B8E_eh@h DB 01H
__EF722C37_vcruntime_exception@h DB 01H
__46E68824_exception DB 01H
__38361E47___msvc_sanitizer_annotate_container@hpp DB 01H
__B9985323_float@h DB 01H
__7F09FFF5_cfloat DB 01H
__19EFB291_limits DB 01H
__5FC42405_new DB 01H
__4CEA04F2_xatomic@h DB 01H
__10B2DE75_xmemory DB 01H
__646158E9_xstring DB 01H
__CFA8B279_stdexcept DB 01H
__CBCEC070_xcall_once@h DB 01H
__53FF9B8D_xerrc@h DB 01H
__0A9237D2_time@h DB 01H
__AA72B55C_ctime DB 01H
__613125D1_xtimec@h DB 01H
__586FEA7F_xthreads@h DB 01H
__72DAEE53_atomic DB 01H
__7493D250_system_error DB 01H
__B333B2F0_vcruntime_typeinfo@h DB 01H
__A72A3589_typeinfo DB 01H
__A541BE1F_memory DB 01H
__8904E910_xfacet DB 01H
__52B54150___msvc_xlocinfo_types@hpp DB 01H
__1EC467ED_ctype@h DB 01H
__0386D3D5_cctype DB 01H
__791C33B7_locale@h DB 01H
__DE86E4EC_clocale DB 01H
__B8A3D641_xlocinfo DB 01H
__BB5F2CD8_xlocale DB 01H
__8146A152_xiosbase DB 01H
__CD080AC5_streambuf DB 01H
__25D84ACF_xlocnum DB 01H
__A7091E13_ios DB 01H
__A84FF61C_ostream DB 01H
__CB9FC326_istream DB 01H
__B58CBC8F_iostream DB 01H
__7C41771A_Header@h DB 01H
__E2409BB0_stdafx@h DB 01H
__F268D957_dayBeforeBirthday@cpp DB 01H
msvcjmc	ENDS
PUBLIC	?__empty_global_delete@@YAXPAX@Z		; __empty_global_delete
PUBLIC	?__empty_global_delete@@YAXPAXI@Z		; __empty_global_delete
PUBLIC	?dayBeforeBirthday@@YAHHHHHH@Z			; dayBeforeBirthday
PUBLIC	__JustMyCode_Default
EXTRN	?ifYearLeap@@YA_NH@Z:PROC			; ifYearLeap
EXTRN	@_RTC_CheckStackVars@8:PROC
EXTRN	@__CheckForDebuggerJustMyCode@4:PROC
EXTRN	__RTC_CheckEsp:PROC
EXTRN	__RTC_InitBase:PROC
EXTRN	__RTC_Shutdown:PROC
;	COMDAT rtc$TMZ
rtc$TMZ	SEGMENT
__RTC_Shutdown.rtc$TMZ DD FLAT:__RTC_Shutdown
rtc$TMZ	ENDS
;	COMDAT rtc$IMZ
rtc$IMZ	SEGMENT
__RTC_InitBase.rtc$IMZ DD FLAT:__RTC_InitBase
rtc$IMZ	ENDS
; Function compile flags: /Odt
;	COMDAT __JustMyCode_Default
_TEXT	SEGMENT
__JustMyCode_Default PROC				; COMDAT
  00000	55		 push	 ebp
  00001	8b ec		 mov	 ebp, esp
  00003	5d		 pop	 ebp
  00004	c3		 ret	 0
__JustMyCode_Default ENDP
_TEXT	ENDS
; Function compile flags: /Odtp /RTCsu /ZI
; File C:\Users\bartyy\Desktop\ЛАБЫ\2sem\КПО НАРКЕВИЧ\laba1\laba\lab1-3\lab1\dayBeforeBirthday.cpp
;	COMDAT ?dayBeforeBirthday@@YAHHHHHH@Z
_TEXT	SEGMENT
tv68 = -280						; size = 4
_i$1 = -80						; size = 4
_daysInMonth$ = -68					; size = 52
_dayBeforeBirthdayNumber$ = -8				; size = 4
_day$ = 8						; size = 4
_mounth$ = 12						; size = 4
_iDay$ = 16						; size = 4
_iMonth$ = 20						; size = 4
_iYear$ = 24						; size = 4
?dayBeforeBirthday@@YAHHHHHH@Z PROC			; dayBeforeBirthday, COMDAT

; 4    : {

  00000	55		 push	 ebp
  00001	8b ec		 mov	 ebp, esp
  00003	81 ec 18 01 00
	00		 sub	 esp, 280		; 00000118H
  00009	53		 push	 ebx
  0000a	56		 push	 esi
  0000b	57		 push	 edi
  0000c	8d 7d a8	 lea	 edi, DWORD PTR [ebp-88]
  0000f	b9 16 00 00 00	 mov	 ecx, 22			; 00000016H
  00014	b8 cc cc cc cc	 mov	 eax, -858993460		; ccccccccH
  00019	f3 ab		 rep stosd
  0001b	b9 00 00 00 00	 mov	 ecx, OFFSET __F268D957_dayBeforeBirthday@cpp
  00020	e8 00 00 00 00	 call	 @__CheckForDebuggerJustMyCode@4

; 5    :     int dayBeforeBirthdayNumber = 0;

  00025	c7 45 f8 00 00
	00 00		 mov	 DWORD PTR _dayBeforeBirthdayNumber$[ebp], 0

; 6    :     int daysInMonth[] = { 0, 31, ifYearLeap(iYear) ? 29 : 28, 31, 30, 31, 30, 31, 31, 30, 31, 30, 31 };

  0002c	c7 45 bc 00 00
	00 00		 mov	 DWORD PTR _daysInMonth$[ebp], 0
  00033	c7 45 c0 1f 00
	00 00		 mov	 DWORD PTR _daysInMonth$[ebp+4], 31 ; 0000001fH
  0003a	8b 45 18	 mov	 eax, DWORD PTR _iYear$[ebp]
  0003d	50		 push	 eax
  0003e	e8 00 00 00 00	 call	 ?ifYearLeap@@YA_NH@Z	; ifYearLeap
  00043	83 c4 04	 add	 esp, 4
  00046	0f b6 c8	 movzx	 ecx, al
  00049	85 c9		 test	 ecx, ecx
  0004b	74 0c		 je	 SHORT $LN8@dayBeforeB
  0004d	c7 85 e8 fe ff
	ff 1d 00 00 00	 mov	 DWORD PTR tv68[ebp], 29	; 0000001dH
  00057	eb 0a		 jmp	 SHORT $LN9@dayBeforeB
$LN8@dayBeforeB:
  00059	c7 85 e8 fe ff
	ff 1c 00 00 00	 mov	 DWORD PTR tv68[ebp], 28	; 0000001cH
$LN9@dayBeforeB:
  00063	8b 95 e8 fe ff
	ff		 mov	 edx, DWORD PTR tv68[ebp]
  00069	89 55 c4	 mov	 DWORD PTR _daysInMonth$[ebp+8], edx
  0006c	c7 45 c8 1f 00
	00 00		 mov	 DWORD PTR _daysInMonth$[ebp+12], 31 ; 0000001fH
  00073	c7 45 cc 1e 00
	00 00		 mov	 DWORD PTR _daysInMonth$[ebp+16], 30 ; 0000001eH
  0007a	c7 45 d0 1f 00
	00 00		 mov	 DWORD PTR _daysInMonth$[ebp+20], 31 ; 0000001fH
  00081	c7 45 d4 1e 00
	00 00		 mov	 DWORD PTR _daysInMonth$[ebp+24], 30 ; 0000001eH
  00088	c7 45 d8 1f 00
	00 00		 mov	 DWORD PTR _daysInMonth$[ebp+28], 31 ; 0000001fH
  0008f	c7 45 dc 1f 00
	00 00		 mov	 DWORD PTR _daysInMonth$[ebp+32], 31 ; 0000001fH
  00096	c7 45 e0 1e 00
	00 00		 mov	 DWORD PTR _daysInMonth$[ebp+36], 30 ; 0000001eH
  0009d	c7 45 e4 1f 00
	00 00		 mov	 DWORD PTR _daysInMonth$[ebp+40], 31 ; 0000001fH
  000a4	c7 45 e8 1e 00
	00 00		 mov	 DWORD PTR _daysInMonth$[ebp+44], 30 ; 0000001eH
  000ab	c7 45 ec 1f 00
	00 00		 mov	 DWORD PTR _daysInMonth$[ebp+48], 31 ; 0000001fH

; 7    :     for (int i = iMonth; i != mounth; i = (i % 12) + 1)

  000b2	8b 45 14	 mov	 eax, DWORD PTR _iMonth$[ebp]
  000b5	89 45 b0	 mov	 DWORD PTR _i$1[ebp], eax
  000b8	eb 11		 jmp	 SHORT $LN4@dayBeforeB
$LN2@dayBeforeB:
  000ba	8b 45 b0	 mov	 eax, DWORD PTR _i$1[ebp]
  000bd	99		 cdq
  000be	b9 0c 00 00 00	 mov	 ecx, 12			; 0000000cH
  000c3	f7 f9		 idiv	 ecx
  000c5	83 c2 01	 add	 edx, 1
  000c8	89 55 b0	 mov	 DWORD PTR _i$1[ebp], edx
$LN4@dayBeforeB:
  000cb	8b 45 b0	 mov	 eax, DWORD PTR _i$1[ebp]
  000ce	3b 45 0c	 cmp	 eax, DWORD PTR _mounth$[ebp]
  000d1	74 29		 je	 SHORT $LN3@dayBeforeB

; 8    :     {
; 9    :         if (i == iMonth)

  000d3	8b 45 b0	 mov	 eax, DWORD PTR _i$1[ebp]
  000d6	3b 45 14	 cmp	 eax, DWORD PTR _iMonth$[ebp]
  000d9	75 12		 jne	 SHORT $LN5@dayBeforeB

; 10   :             dayBeforeBirthdayNumber += daysInMonth[i] - iDay;

  000db	8b 45 b0	 mov	 eax, DWORD PTR _i$1[ebp]
  000de	8b 4c 85 bc	 mov	 ecx, DWORD PTR _daysInMonth$[ebp+eax*4]
  000e2	2b 4d 10	 sub	 ecx, DWORD PTR _iDay$[ebp]
  000e5	03 4d f8	 add	 ecx, DWORD PTR _dayBeforeBirthdayNumber$[ebp]
  000e8	89 4d f8	 mov	 DWORD PTR _dayBeforeBirthdayNumber$[ebp], ecx
  000eb	eb 0d		 jmp	 SHORT $LN6@dayBeforeB
$LN5@dayBeforeB:

; 11   :         else
; 12   :             dayBeforeBirthdayNumber += daysInMonth[i];

  000ed	8b 45 b0	 mov	 eax, DWORD PTR _i$1[ebp]
  000f0	8b 4d f8	 mov	 ecx, DWORD PTR _dayBeforeBirthdayNumber$[ebp]
  000f3	03 4c 85 bc	 add	 ecx, DWORD PTR _daysInMonth$[ebp+eax*4]
  000f7	89 4d f8	 mov	 DWORD PTR _dayBeforeBirthdayNumber$[ebp], ecx
$LN6@dayBeforeB:

; 13   :     }

  000fa	eb be		 jmp	 SHORT $LN2@dayBeforeB
$LN3@dayBeforeB:

; 14   :     dayBeforeBirthdayNumber += day;

  000fc	8b 45 f8	 mov	 eax, DWORD PTR _dayBeforeBirthdayNumber$[ebp]
  000ff	03 45 08	 add	 eax, DWORD PTR _day$[ebp]
  00102	89 45 f8	 mov	 DWORD PTR _dayBeforeBirthdayNumber$[ebp], eax

; 15   :     return dayBeforeBirthdayNumber;

  00105	8b 45 f8	 mov	 eax, DWORD PTR _dayBeforeBirthdayNumber$[ebp]

; 16   : }

  00108	52		 push	 edx
  00109	8b cd		 mov	 ecx, ebp
  0010b	50		 push	 eax
  0010c	8d 15 00 00 00
	00		 lea	 edx, DWORD PTR $LN12@dayBeforeB
  00112	e8 00 00 00 00	 call	 @_RTC_CheckStackVars@8
  00117	58		 pop	 eax
  00118	5a		 pop	 edx
  00119	5f		 pop	 edi
  0011a	5e		 pop	 esi
  0011b	5b		 pop	 ebx
  0011c	81 c4 18 01 00
	00		 add	 esp, 280		; 00000118H
  00122	3b ec		 cmp	 ebp, esp
  00124	e8 00 00 00 00	 call	 __RTC_CheckEsp
  00129	8b e5		 mov	 esp, ebp
  0012b	5d		 pop	 ebp
  0012c	c3		 ret	 0
  0012d	0f 1f 00	 npad	 3
$LN12@dayBeforeB:
  00130	01 00 00 00	 DD	 1
  00134	00 00 00 00	 DD	 $LN11@dayBeforeB
$LN11@dayBeforeB:
  00138	bc ff ff ff	 DD	 -68			; ffffffbcH
  0013c	34 00 00 00	 DD	 52			; 00000034H
  00140	00 00 00 00	 DD	 $LN10@dayBeforeB
$LN10@dayBeforeB:
  00144	64		 DB	 100			; 00000064H
  00145	61		 DB	 97			; 00000061H
  00146	79		 DB	 121			; 00000079H
  00147	73		 DB	 115			; 00000073H
  00148	49		 DB	 73			; 00000049H
  00149	6e		 DB	 110			; 0000006eH
  0014a	4d		 DB	 77			; 0000004dH
  0014b	6f		 DB	 111			; 0000006fH
  0014c	6e		 DB	 110			; 0000006eH
  0014d	74		 DB	 116			; 00000074H
  0014e	68		 DB	 104			; 00000068H
  0014f	00		 DB	 0
?dayBeforeBirthday@@YAHHHHHH@Z ENDP			; dayBeforeBirthday
_TEXT	ENDS
; Function compile flags: /Odtp /RTCsu /ZI
; File C:\Users\bartyy\Desktop\ЛАБЫ\2sem\КПО НАРКЕВИЧ\laba1\laba\lab1-3\lab1\dayBeforeBirthday.cpp
;	COMDAT ?__empty_global_delete@@YAXPAXI@Z
_TEXT	SEGMENT
___formal$ = 8						; size = 4
___formal$ = 12						; size = 4
?__empty_global_delete@@YAXPAXI@Z PROC			; __empty_global_delete, COMDAT

  00000	55		 push	 ebp
  00001	8b ec		 mov	 ebp, esp
  00003	81 ec c0 00 00
	00		 sub	 esp, 192		; 000000c0H
  00009	53		 push	 ebx
  0000a	56		 push	 esi
  0000b	57		 push	 edi
  0000c	8b fd		 mov	 edi, ebp
  0000e	33 c9		 xor	 ecx, ecx
  00010	b8 cc cc cc cc	 mov	 eax, -858993460		; ccccccccH
  00015	f3 ab		 rep stosd
  00017	b9 00 00 00 00	 mov	 ecx, OFFSET __F268D957_dayBeforeBirthday@cpp
  0001c	e8 00 00 00 00	 call	 @__CheckForDebuggerJustMyCode@4
  00021	5f		 pop	 edi
  00022	5e		 pop	 esi
  00023	5b		 pop	 ebx
  00024	81 c4 c0 00 00
	00		 add	 esp, 192		; 000000c0H
  0002a	3b ec		 cmp	 ebp, esp
  0002c	e8 00 00 00 00	 call	 __RTC_CheckEsp
  00031	8b e5		 mov	 esp, ebp
  00033	5d		 pop	 ebp
  00034	c3		 ret	 0
?__empty_global_delete@@YAXPAXI@Z ENDP			; __empty_global_delete
_TEXT	ENDS
; Function compile flags: /Odtp /RTCsu /ZI
; File C:\Users\bartyy\Desktop\ЛАБЫ\2sem\КПО НАРКЕВИЧ\laba1\laba\lab1-3\lab1\dayBeforeBirthday.cpp
;	COMDAT ?__empty_global_delete@@YAXPAX@Z
_TEXT	SEGMENT
___formal$ = 8						; size = 4
?__empty_global_delete@@YAXPAX@Z PROC			; __empty_global_delete, COMDAT

  00000	55		 push	 ebp
  00001	8b ec		 mov	 ebp, esp
  00003	81 ec c0 00 00
	00		 sub	 esp, 192		; 000000c0H
  00009	53		 push	 ebx
  0000a	56		 push	 esi
  0000b	57		 push	 edi
  0000c	8b fd		 mov	 edi, ebp
  0000e	33 c9		 xor	 ecx, ecx
  00010	b8 cc cc cc cc	 mov	 eax, -858993460		; ccccccccH
  00015	f3 ab		 rep stosd
  00017	b9 00 00 00 00	 mov	 ecx, OFFSET __F268D957_dayBeforeBirthday@cpp
  0001c	e8 00 00 00 00	 call	 @__CheckForDebuggerJustMyCode@4
  00021	5f		 pop	 edi
  00022	5e		 pop	 esi
  00023	5b		 pop	 ebx
  00024	81 c4 c0 00 00
	00		 add	 esp, 192		; 000000c0H
  0002a	3b ec		 cmp	 ebp, esp
  0002c	e8 00 00 00 00	 call	 __RTC_CheckEsp
  00031	8b e5		 mov	 esp, ebp
  00033	5d		 pop	 ebp
  00034	c3		 ret	 0
?__empty_global_delete@@YAXPAX@Z ENDP			; __empty_global_delete
_TEXT	ENDS
END
